target datalayout = "e-m:e-p270:32:32-p271:32:32-p272:64:64-i64:64-i128:128-f80:128-n8:16:32:64-S128"
target triple = "x86_64-pc-linux-gnu"

%struct.evthread_lock_callbacks = type { i32, i32, ptr, ptr, ptr, ptr }
%struct.evbuffer_chain = type { ptr, i64, i64, i64, i32, i32, ptr }
%struct.evbuffer = type { ptr, ptr, ptr, i64, i64, i64, i64, ptr, i8, i32, ptr, i32, %struct.event_callback, %struct.evbuffer_cb_queue, ptr }
%struct.event_callback = type { %struct.anon, i16, i8, i8, %union.anon, ptr }
%struct.anon = type { ptr, ptr }
%union.anon = type { ptr }
%struct.evbuffer_cb_queue = type { ptr }
%struct.iovec = type { ptr, i64 }
%struct.evbuffer_ptr = type { i64, %struct.anon.0 }
%struct.anon.0 = type { ptr, i64 }

@evthread_lock_fns_ = external global %struct.evthread_lock_callbacks, align 8

; Function Attrs: nounwind uwtable
define i32 @evbuffer_peek(ptr noundef %0, i64 noundef %1, ptr noundef %2, ptr noundef %3, i32 noundef %4) #0 {
  %6 = alloca i32, align 4
  %7 = alloca ptr, align 8
  %8 = alloca i64, align 8
  %9 = alloca ptr, align 8
  %10 = alloca ptr, align 8
  %11 = alloca i32, align 4
  %12 = alloca ptr, align 8
  %13 = alloca i32, align 4
  %14 = alloca i64, align 8
  %15 = alloca i32, align 4
  store ptr %0, ptr %7, align 8
  store i64 %1, ptr %8, align 8
  store ptr %2, ptr %9, align 8
  store ptr %3, ptr %10, align 8
  store i32 %4, ptr %11, align 4
  call void @llvm.lifetime.start.p0(i64 8, ptr %12) #10
  call void @llvm.lifetime.start.p0(i64 4, ptr %13) #10
  store i32 0, ptr %13, align 4
  call void @llvm.lifetime.start.p0(i64 8, ptr %14) #10
  store i64 0, ptr %14, align 8
  %16 = load ptr, ptr %9, align 8
  %17 = icmp ne ptr %16, null
  br i1 %17, label %18, label %25

18:                                               ; preds = %5
  %19 = load ptr, ptr %9, align 8
  %20 = getelementptr inbounds nuw %struct.evbuffer_ptr, ptr %19, i32 0, i32 1
  %21 = getelementptr inbounds nuw %struct.anon.0, ptr %20, i32 0, i32 0
  %22 = load ptr, ptr %21, align 8
  %23 = icmp eq ptr %22, null
  br i1 %23, label %24, label %25

24:                                               ; preds = %18
  store i32 0, ptr %6, align 4
  store i32 1, ptr %15, align 4
  br label %179

25:                                               ; preds = %18, %5
  br label %26

26:                                               ; preds = %25
  br label %27

27:                                               ; preds = %26
  %28 = load ptr, ptr %7, align 8
  %29 = getelementptr inbounds nuw %struct.evbuffer, ptr %28, i32 0, i32 7
  %30 = load ptr, ptr %29, align 8
  %31 = icmp ne ptr %30, null
  br i1 %31, label %32, label %38

32:                                               ; preds = %27
  %33 = load ptr, ptr getelementptr inbounds nuw (%struct.evthread_lock_callbacks, ptr @evthread_lock_fns_, i32 0, i32 4), align 8
  %34 = load ptr, ptr %7, align 8
  %35 = getelementptr inbounds nuw %struct.evbuffer, ptr %34, i32 0, i32 7
  %36 = load ptr, ptr %35, align 8
  %37 = call i32 %33(i32 noundef 0, ptr noundef %36)
  br label %38

38:                                               ; preds = %32, %27
  br label %39

39:                                               ; preds = %38
  br label %40

40:                                               ; preds = %39
  br label %41

41:                                               ; preds = %40
  br label %42

42:                                               ; preds = %41
  %43 = load ptr, ptr %9, align 8
  %44 = icmp ne ptr %43, null
  br i1 %44, label %45, label %84

45:                                               ; preds = %42
  %46 = load ptr, ptr %9, align 8
  %47 = getelementptr inbounds nuw %struct.evbuffer_ptr, ptr %46, i32 0, i32 1
  %48 = getelementptr inbounds nuw %struct.anon.0, ptr %47, i32 0, i32 0
  %49 = load ptr, ptr %48, align 8
  store ptr %49, ptr %12, align 8
  %50 = load ptr, ptr %12, align 8
  %51 = getelementptr inbounds nuw %struct.evbuffer_chain, ptr %50, i32 0, i32 3
  %52 = load i64, ptr %51, align 8
  %53 = load ptr, ptr %9, align 8
  %54 = getelementptr inbounds nuw %struct.evbuffer_ptr, ptr %53, i32 0, i32 1
  %55 = getelementptr inbounds nuw %struct.anon.0, ptr %54, i32 0, i32 1
  %56 = load i64, ptr %55, align 8
  %57 = sub i64 %52, %56
  store i64 %57, ptr %14, align 8
  store i32 1, ptr %13, align 4
  %58 = load i32, ptr %11, align 4
  %59 = icmp sgt i32 %58, 0
  br i1 %59, label %60, label %80

60:                                               ; preds = %45
  %61 = load ptr, ptr %12, align 8
  %62 = getelementptr inbounds nuw %struct.evbuffer_chain, ptr %61, i32 0, i32 6
  %63 = load ptr, ptr %62, align 8
  %64 = load ptr, ptr %12, align 8
  %65 = getelementptr inbounds nuw %struct.evbuffer_chain, ptr %64, i32 0, i32 2
  %66 = load i64, ptr %65, align 8
  %67 = getelementptr inbounds i8, ptr %63, i64 %66
  %68 = load ptr, ptr %9, align 8
  %69 = getelementptr inbounds nuw %struct.evbuffer_ptr, ptr %68, i32 0, i32 1
  %70 = getelementptr inbounds nuw %struct.anon.0, ptr %69, i32 0, i32 1
  %71 = load i64, ptr %70, align 8
  %72 = getelementptr inbounds nuw i8, ptr %67, i64 %71
  %73 = load ptr, ptr %10, align 8
  %74 = getelementptr inbounds %struct.iovec, ptr %73, i64 0
  %75 = getelementptr inbounds nuw %struct.iovec, ptr %74, i32 0, i32 0
  store ptr %72, ptr %75, align 8
  %76 = load i64, ptr %14, align 8
  %77 = load ptr, ptr %10, align 8
  %78 = getelementptr inbounds %struct.iovec, ptr %77, i64 0
  %79 = getelementptr inbounds nuw %struct.iovec, ptr %78, i32 0, i32 1
  store i64 %76, ptr %79, align 8
  br label %80

80:                                               ; preds = %60, %45
  %81 = load ptr, ptr %12, align 8
  %82 = getelementptr inbounds nuw %struct.evbuffer_chain, ptr %81, i32 0, i32 0
  %83 = load ptr, ptr %82, align 8
  store ptr %83, ptr %12, align 8
  br label %88

84:                                               ; preds = %42
  %85 = load ptr, ptr %7, align 8
  %86 = getelementptr inbounds nuw %struct.evbuffer, ptr %85, i32 0, i32 0
  %87 = load ptr, ptr %86, align 8
  store ptr %87, ptr %12, align 8
  br label %88

88:                                               ; preds = %84, %80
  %89 = load i32, ptr %11, align 4
  %90 = icmp eq i32 %89, 0
  br i1 %90, label %91, label %107

91:                                               ; preds = %88
  %92 = load i64, ptr %8, align 8
  %93 = icmp slt i64 %92, 0
  br i1 %93, label %94, label %107

94:                                               ; preds = %91
  %95 = load ptr, ptr %7, align 8
  %96 = getelementptr inbounds nuw %struct.evbuffer, ptr %95, i32 0, i32 3
  %97 = load i64, ptr %96, align 8
  store i64 %97, ptr %8, align 8
  %98 = load ptr, ptr %9, align 8
  %99 = icmp ne ptr %98, null
  br i1 %99, label %100, label %106

100:                                              ; preds = %94
  %101 = load ptr, ptr %9, align 8
  %102 = getelementptr inbounds nuw %struct.evbuffer_ptr, ptr %101, i32 0, i32 0
  %103 = load i64, ptr %102, align 8
  %104 = load i64, ptr %8, align 8
  %105 = sub nsw i64 %104, %103
  store i64 %105, ptr %8, align 8
  br label %106

106:                                              ; preds = %100, %94
  br label %107

107:                                              ; preds = %106, %91, %88
  br label %108

108:                                              ; preds = %149, %107
  %109 = load ptr, ptr %12, align 8
  %110 = icmp ne ptr %109, null
  br i1 %110, label %111, label %160

111:                                              ; preds = %108
  %112 = load i64, ptr %8, align 8
  %113 = icmp sge i64 %112, 0
  br i1 %113, label %114, label %119

114:                                              ; preds = %111
  %115 = load i64, ptr %14, align 8
  %116 = load i64, ptr %8, align 8
  %117 = icmp sge i64 %115, %116
  br i1 %117, label %118, label %119

118:                                              ; preds = %114
  br label %160

119:                                              ; preds = %114, %111
  %120 = load i32, ptr %13, align 4
  %121 = load i32, ptr %11, align 4
  %122 = icmp slt i32 %120, %121
  br i1 %122, label %123, label %144

123:                                              ; preds = %119
  %124 = load ptr, ptr %12, align 8
  %125 = getelementptr inbounds nuw %struct.evbuffer_chain, ptr %124, i32 0, i32 6
  %126 = load ptr, ptr %125, align 8
  %127 = load ptr, ptr %12, align 8
  %128 = getelementptr inbounds nuw %struct.evbuffer_chain, ptr %127, i32 0, i32 2
  %129 = load i64, ptr %128, align 8
  %130 = getelementptr inbounds i8, ptr %126, i64 %129
  %131 = load ptr, ptr %10, align 8
  %132 = load i32, ptr %13, align 4
  %133 = sext i32 %132 to i64
  %134 = getelementptr inbounds %struct.iovec, ptr %131, i64 %133
  %135 = getelementptr inbounds nuw %struct.iovec, ptr %134, i32 0, i32 0
  store ptr %130, ptr %135, align 8
  %136 = load ptr, ptr %12, align 8
  %137 = getelementptr inbounds nuw %struct.evbuffer_chain, ptr %136, i32 0, i32 3
  %138 = load i64, ptr %137, align 8
  %139 = load ptr, ptr %10, align 8
  %140 = load i32, ptr %13, align 4
  %141 = sext i32 %140 to i64
  %142 = getelementptr inbounds %struct.iovec, ptr %139, i64 %141
  %143 = getelementptr inbounds nuw %struct.iovec, ptr %142, i32 0, i32 1
  store i64 %138, ptr %143, align 8
  br label %149

144:                                              ; preds = %119
  %145 = load i64, ptr %8, align 8
  %146 = icmp slt i64 %145, 0
  br i1 %146, label %147, label %148

147:                                              ; preds = %144
  br label %160

148:                                              ; preds = %144
  br label %149

149:                                              ; preds = %148, %123
  %150 = load i32, ptr %13, align 4
  %151 = add nsw i32 %150, 1
  store i32 %151, ptr %13, align 4
  %152 = load ptr, ptr %12, align 8
  %153 = getelementptr inbounds nuw %struct.evbuffer_chain, ptr %152, i32 0, i32 3
  %154 = load i64, ptr %153, align 8
  %155 = load i64, ptr %14, align 8
  %156 = add i64 %155, %154
  store i64 %156, ptr %14, align 8
  %157 = load ptr, ptr %12, align 8
  %158 = getelementptr inbounds nuw %struct.evbuffer_chain, ptr %157, i32 0, i32 0
  %159 = load ptr, ptr %158, align 8
  store ptr %159, ptr %12, align 8
  br label %108, !llvm.loop !35

160:                                              ; preds = %147, %118, %108
  br label %161

161:                                              ; preds = %160
  br label %162

162:                                              ; preds = %161
  %163 = load ptr, ptr %7, align 8
  %164 = getelementptr inbounds nuw %struct.evbuffer, ptr %163, i32 0, i32 7
  %165 = load ptr, ptr %164, align 8
  %166 = icmp ne ptr %165, null
  br i1 %166, label %167, label %173

167:                                              ; preds = %162
  %168 = load ptr, ptr getelementptr inbounds nuw (%struct.evthread_lock_callbacks, ptr @evthread_lock_fns_, i32 0, i32 5), align 8
  %169 = load ptr, ptr %7, align 8
  %170 = getelementptr inbounds nuw %struct.evbuffer, ptr %169, i32 0, i32 7
  %171 = load ptr, ptr %170, align 8
  %172 = call i32 %168(i32 noundef 0, ptr noundef %171)
  br label %173

173:                                              ; preds = %167, %162
  br label %174

174:                                              ; preds = %173
  br label %175

175:                                              ; preds = %174
  br label %176

176:                                              ; preds = %175
  br label %177

177:                                              ; preds = %176
  %178 = load i32, ptr %13, align 4
  store i32 %178, ptr %6, align 4
  store i32 1, ptr %15, align 4
  br label %179

179:                                              ; preds = %177, %24
  call void @llvm.lifetime.end.p0(i64 8, ptr %14) #10
  call void @llvm.lifetime.end.p0(i64 4, ptr %13) #10
  call void @llvm.lifetime.end.p0(i64 8, ptr %12) #10
  %180 = load i32, ptr %6, align 4
  ret i32 %180
}