; Function Attrs: nounwind uwtable
define i32 @evbuffer_peek(ptr noundef readonly captures(none) %0, i64 noundef %1, ptr noundef readonly captures(address_is_null) %2, ptr noundef writeonly captures(none) %3, i32 noundef %4) local_unnamed_addr #1 {
  %.not = icmp eq ptr %2, null
  br i1 %.not, label %10, label %6

6:                                                ; preds = %5
  %7 = getelementptr inbounds nuw i8, ptr %2, i64 8
  %8 = load ptr, ptr %7, align 8
  %9 = icmp eq ptr %8, null
  br i1 %9, label %81, label %10

10:                                               ; preds = %6, %5
  %11 = getelementptr inbounds nuw i8, ptr %0, i64 56
  %12 = load ptr, ptr %11, align 8
  %.not55 = icmp eq ptr %12, null
  br i1 %.not55, label %16, label %13

13:                                               ; preds = %10
  %14 = load ptr, ptr getelementptr inbounds nuw (i8, ptr @evthread_lock_fns_, i64 24), align 8
  %15 = tail call i32 %14(i32 noundef 0, ptr noundef nonnull %12) #16
  br label %16

16:                                               ; preds = %13, %10
  br i1 %.not, label %33, label %17

17:                                               ; preds = %16
  %18 = getelementptr inbounds nuw i8, ptr %2, i64 8
  %19 = load ptr, ptr %18, align 8
  %20 = getelementptr inbounds nuw i8, ptr %19, i64 24
  %21 = load i64, ptr %20, align 8
  %22 = getelementptr inbounds nuw i8, ptr %2, i64 16
  %23 = load i64, ptr %22, align 8
  %24 = sub i64 %21, %23
  %25 = icmp sgt i32 %4, 0
  br i1 %25, label %.thread, label %.thread68

.thread:                                          ; preds = %17
  %26 = getelementptr inbounds nuw i8, ptr %19, i64 40
  %27 = load ptr, ptr %26, align 8
  %28 = getelementptr inbounds nuw i8, ptr %19, i64 16
  %29 = load i64, ptr %28, align 8
  %30 = getelementptr inbounds i8, ptr %27, i64 %29
  %31 = getelementptr inbounds nuw i8, ptr %30, i64 %23
  store ptr %31, ptr %3, align 8
  %32 = getelementptr inbounds nuw i8, ptr %3, i64 8
  store i64 %24, ptr %32, align 8
  %.04763 = load ptr, ptr %19, align 8
  br label %46

33:                                               ; preds = %16
  %.047 = load ptr, ptr %0, align 8
  %34 = icmp eq i32 %4, 0
  %35 = icmp slt i64 %1, 0
  %or.cond = and i1 %35, %34
  br i1 %or.cond, label %38, label %46

.thread68:                                        ; preds = %17
  %.04772 = load ptr, ptr %19, align 8
  %36 = icmp eq i32 %4, 0
  %37 = icmp slt i64 %1, 0
  %or.cond73 = and i1 %37, %36
  br i1 %or.cond73, label %41, label %46

38:                                               ; preds = %33
  %39 = getelementptr inbounds nuw i8, ptr %0, i64 24
  %40 = load i64, ptr %39, align 8
  br label %46

41:                                               ; preds = %.thread68
  %42 = getelementptr inbounds nuw i8, ptr %0, i64 24
  %43 = load i64, ptr %42, align 8
  %44 = load i64, ptr %2, align 8
  %45 = sub nsw i64 %43, %44
  br label %46

46:                                               ; preds = %38, %.thread68, %.thread, %41, %33
  %.04767 = phi ptr [ %.04772, %41 ], [ %.047, %38 ], [ %.047, %33 ], [ %.04763, %.thread ], [ %.04772, %.thread68 ]
  %.066 = phi i64 [ %24, %41 ], [ 0, %38 ], [ 0, %33 ], [ %24, %.thread ], [ %24, %.thread68 ]
  %.04565 = phi i32 [ 1, %41 ], [ 0, %38 ], [ 0, %33 ], [ 1, %.thread ], [ 1, %.thread68 ]
  %.050 = phi i64 [ %45, %41 ], [ %40, %38 ], [ %1, %33 ], [ %1, %.thread ], [ %1, %.thread68 ]
  %.050.fr = freeze i64 %.050
  %.not5684 = icmp eq ptr %.04767, null
  br i1 %.not5684, label %._crit_edge, label %.lr.ph

.lr.ph:                                           ; preds = %46
  %47 = icmp slt i64 %.050.fr, 0
  %48 = zext nneg i32 %.04565 to i64
  br i1 %47, label %.lr.ph.split.us.split.us.preheader, label %.lr.ph.split.split.preheader

.lr.ph.split.us.split.us.preheader:               ; preds = %.lr.ph
  %smax = tail call i32 @llvm.smax.i32(i32 %.04565, i32 %4)
  %wide.trip.count = zext nneg i32 %smax to i64
  br label %.lr.ph.split.us.split.us

.lr.ph.split.us.split.us:                         ; preds = %.lr.ph.split.us.split.us.preheader, %49
  %indvars.iv124 = phi i64 [ %48, %.lr.ph.split.us.split.us.preheader ], [ %indvars.iv.next125, %49 ]
  %.14885.us.us = phi ptr [ %.04767, %.lr.ph.split.us.split.us.preheader ], [ %59, %49 ]
  %exitcond.not = icmp eq i64 %indvars.iv124, %wide.trip.count
  br i1 %exitcond.not, label %._crit_edge, label %49

49:                                               ; preds = %.lr.ph.split.us.split.us
  %50 = getelementptr inbounds nuw i8, ptr %.14885.us.us, i64 40
  %51 = load ptr, ptr %50, align 8
  %52 = getelementptr inbounds nuw i8, ptr %.14885.us.us, i64 16
  %53 = load i64, ptr %52, align 8
  %54 = getelementptr inbounds i8, ptr %51, i64 %53
  %55 = getelementptr inbounds nuw %struct.iovec, ptr %3, i64 %indvars.iv124
  store ptr %54, ptr %55, align 8
  %56 = getelementptr inbounds nuw i8, ptr %.14885.us.us, i64 24
  %57 = load i64, ptr %56, align 8
  %58 = getelementptr inbounds nuw i8, ptr %55, i64 8
  store i64 %57, ptr %58, align 8
  %indvars.iv.next125 = add nuw nsw i64 %indvars.iv124, 1
  %59 = load ptr, ptr %.14885.us.us, align 8
  %.not56.us.us = icmp eq ptr %59, null
  br i1 %.not56.us.us, label %._crit_edge.loopexit.split.loop.exit129, label %.lr.ph.split.us.split.us, !llvm.loop !35

.lr.ph.split.split.preheader:                     ; preds = %.lr.ph
  %60 = sext i32 %4 to i64
  br label %.lr.ph.split.split

.lr.ph.split.split:                               ; preds = %.lr.ph.split.split.preheader, %73
  %indvars.iv = phi i64 [ %48, %.lr.ph.split.split.preheader ], [ %indvars.iv.next, %73 ]
  %.187 = phi i64 [ %.066, %.lr.ph.split.split.preheader ], [ %75, %73 ]
  %.14885 = phi ptr [ %.04767, %.lr.ph.split.split.preheader ], [ %76, %73 ]
  %.not57 = icmp slt i64 %.187, %.050.fr
  br i1 %.not57, label %61, label %._crit_edge.loopexit113

61:                                               ; preds = %.lr.ph.split.split
  %62 = icmp slt i64 %indvars.iv, %60
  br i1 %62, label %63, label %._crit_edge128

._crit_edge128:                                   ; preds = %61
  %.phi.trans.insert = getelementptr inbounds nuw i8, ptr %.14885, i64 24
  %.pre = load i64, ptr %.phi.trans.insert, align 8
  br label %73

63:                                               ; preds = %61
  %64 = getelementptr inbounds nuw i8, ptr %.14885, i64 40
  %65 = load ptr, ptr %64, align 8
  %66 = getelementptr inbounds nuw i8, ptr %.14885, i64 16
  %67 = load i64, ptr %66, align 8
  %68 = getelementptr inbounds i8, ptr %65, i64 %67
  %69 = getelementptr inbounds nuw %struct.iovec, ptr %3, i64 %indvars.iv
  store ptr %68, ptr %69, align 8
  %70 = getelementptr inbounds nuw i8, ptr %.14885, i64 24
  %71 = load i64, ptr %70, align 8
  %72 = getelementptr inbounds nuw i8, ptr %69, i64 8
  store i64 %71, ptr %72, align 8
  br label %73

73:                                               ; preds = %._crit_edge128, %63
  %74 = phi i64 [ %.pre, %._crit_edge128 ], [ %71, %63 ]
  %indvars.iv.next = add nuw nsw i64 %indvars.iv, 1
  %75 = add i64 %74, %.187
  %76 = load ptr, ptr %.14885, align 8
  %.not56 = icmp eq ptr %76, null
  br i1 %.not56, label %._crit_edge.loopexit113, label %.lr.ph.split.split, !llvm.loop !35

._crit_edge.loopexit113:                          ; preds = %.lr.ph.split.split, %73
  %.146.lcssa.ph114.in = phi i64 [ %indvars.iv.next, %73 ], [ %indvars.iv, %.lr.ph.split.split ]
  %.146.lcssa.ph114 = trunc i64 %.146.lcssa.ph114.in to i32
  br label %._crit_edge

._crit_edge.loopexit.split.loop.exit129:          ; preds = %49
  %indvars126.le = trunc i64 %indvars.iv.next125 to i32
  br label %._crit_edge

._crit_edge:                                      ; preds = %.lr.ph.split.us.split.us, %._crit_edge.loopexit.split.loop.exit129, %._crit_edge.loopexit113, %46
  %.146.lcssa = phi i32 [ %.04565, %46 ], [ %.146.lcssa.ph114, %._crit_edge.loopexit113 ], [ %indvars126.le, %._crit_edge.loopexit.split.loop.exit129 ], [ %smax, %.lr.ph.split.us.split.us ]
  %77 = load ptr, ptr %11, align 8
  %.not58 = icmp eq ptr %77, null
  br i1 %.not58, label %81, label %78

78:                                               ; preds = %._crit_edge
  %79 = load ptr, ptr getelementptr inbounds nuw (i8, ptr @evthread_lock_fns_, i64 32), align 8
  %80 = tail call i32 %79(i32 noundef 0, ptr noundef nonnull %77) #16
  br label %81

81:                                               ; preds = %._crit_edge, %78, %6
  %.049 = phi i32 [ 0, %6 ], [ %.146.lcssa, %78 ], [ %.146.lcssa, %._crit_edge ]
  ret i32 %.049
}